target datalayout = "e-m:e-p270:32:32-p271:32:32-p272:64:64-i64:64-i128:128-f80:128-n8:16:32:64-S128"
target triple = "x86_64-pc-linux-gnu"

%struct.dtNode = type { [3 x float], float, float, i32, i32 }
%class.dtNodeQueue = type { ptr, i32, i32 }

; Function Attrs: mustprogress nounwind uwtable
define void @_ZN11dtNodeQueue8bubbleUpEiP6dtNode(ptr noundef nonnull align 8 dereferenceable(16) %0, i32 noundef %1, ptr noundef %2) #2 align 2 {
  %4 = alloca ptr, align 8
  %5 = alloca i32, align 4
  %6 = alloca ptr, align 8
  %7 = alloca i32, align 4
  store ptr %0, ptr %4, align 8
  store i32 %1, ptr %5, align 4
  store ptr %2, ptr %6, align 8
  %8 = load ptr, ptr %4, align 8
  %9 = load i32, ptr %5, align 4
  %10 = sub nsw i32 %9, 1
  %11 = sdiv i32 %10, 2
  store i32 %11, ptr %7, align 4
  br label %12

12:                                               ; preds = %30, %3
  %13 = load i32, ptr %5, align 4
  %14 = icmp sgt i32 %13, 0
  br i1 %14, label %15, label %28

15:                                               ; preds = %12
  %16 = getelementptr inbounds %class.dtNodeQueue, ptr %8, i32 0, i32 0
  %17 = load ptr, ptr %16, align 8
  %18 = load i32, ptr %7, align 4
  %19 = sext i32 %18 to i64
  %20 = getelementptr inbounds ptr, ptr %17, i64 %19
  %21 = load ptr, ptr %20, align 8
  %22 = getelementptr inbounds %struct.dtNode, ptr %21, i32 0, i32 2
  %23 = load float, ptr %22, align 4
  %24 = load ptr, ptr %6, align 8
  %25 = getelementptr inbounds %struct.dtNode, ptr %24, i32 0, i32 2
  %26 = load float, ptr %25, align 4
  %27 = fcmp ogt float %23, %26
  br label %28

28:                                               ; preds = %15, %12
  %29 = phi i1 [ false, %12 ], [ %27, %15 ]
  br i1 %29, label %30, label %46

30:                                               ; preds = %28
  %31 = getelementptr inbounds %class.dtNodeQueue, ptr %8, i32 0, i32 0
  %32 = load ptr, ptr %31, align 8
  %33 = load i32, ptr %7, align 4
  %34 = sext i32 %33 to i64
  %35 = getelementptr inbounds ptr, ptr %32, i64 %34
  %36 = load ptr, ptr %35, align 8
  %37 = getelementptr inbounds %class.dtNodeQueue, ptr %8, i32 0, i32 0
  %38 = load ptr, ptr %37, align 8
  %39 = load i32, ptr %5, align 4
  %40 = sext i32 %39 to i64
  %41 = getelementptr inbounds ptr, ptr %38, i64 %40
  store ptr %36, ptr %41, align 8
  %42 = load i32, ptr %7, align 4
  store i32 %42, ptr %5, align 4
  %43 = load i32, ptr %5, align 4
  %44 = sub nsw i32 %43, 1
  %45 = sdiv i32 %44, 2
  store i32 %45, ptr %7, align 4
  br label %12, !llvm.loop !8

46:                                               ; preds = %28
  %47 = load ptr, ptr %6, align 8
  %48 = getelementptr inbounds %class.dtNodeQueue, ptr %8, i32 0, i32 0
  %49 = load ptr, ptr %48, align 8
  %50 = load i32, ptr %5, align 4
  %51 = sext i32 %50 to i64
  %52 = getelementptr inbounds ptr, ptr %49, i64 %51
  store ptr %47, ptr %52, align 8
  ret void
}