; Function Attrs: mustprogress nofree norecurse nosync nounwind memory(readwrite, inaccessiblemem: none) uwtable
define void @_ZN11dtNodeQueue8bubbleUpEiP6dtNode(ptr noundef nonnull readonly align 8 captures(none) dereferenceable(16) %0, i32 noundef %1, ptr noundef %2) local_unnamed_addr #9 align 2 {
  %4 = icmp sgt i32 %1, 0
  br i1 %4, label %.lr.ph, label %.critedge

.lr.ph:                                           ; preds = %3
  %5 = getelementptr inbounds nuw i8, ptr %2, i64 16
  br label %6

6:                                                ; preds = %.lr.ph, %15
  %.01013 = phi i32 [ %1, %.lr.ph ], [ %.014, %15 ]
  %.014.in = add nsw i32 %.01013, -1
  %.014 = sdiv i32 %.014.in, 2
  %7 = load ptr, ptr %0, align 8
  %8 = sext i32 %.014 to i64
  %9 = getelementptr inbounds ptr, ptr %7, i64 %8
  %10 = load ptr, ptr %9, align 8
  %11 = getelementptr inbounds nuw i8, ptr %10, i64 16
  %12 = load float, ptr %11, align 4
  %13 = load float, ptr %5, align 4
  %14 = fcmp ogt float %12, %13
  br i1 %14, label %15, label %.critedge

15:                                               ; preds = %6
  %16 = zext nneg i32 %.01013 to i64
  %17 = getelementptr inbounds nuw ptr, ptr %7, i64 %16
  store ptr %10, ptr %17, align 8
  %18 = icmp sgt i32 %.01013, 2
  br i1 %18, label %6, label %.critedge, !llvm.loop !8

.critedge:                                        ; preds = %6, %15, %3
  %.010.lcssa = phi i32 [ %1, %3 ], [ %.014, %15 ], [ %.01013, %6 ]
  %19 = load ptr, ptr %0, align 8
  %20 = sext i32 %.010.lcssa to i64
  %21 = getelementptr inbounds ptr, ptr %19, i64 %20
  store ptr %2, ptr %21, align 8
  ret void
}